target datalayout = "e-m:e-p270:32:32-p271:32:32-p272:64:64-i64:64-i128:128-f80:128-n8:16:32:64-S128"
target triple = "x86_64-pc-linux-gnu"

%struct.boxf = type { %struct.pointf_s, %struct.pointf_s }
%struct.pointf_s = type { double, double }
%struct.exdot_op = type { %struct._xdot_op, %struct.boxf, ptr }
%struct._xdot_op = type { i32, %union.anon.2, ptr }
%union.anon.2 = type { %struct.xdot_color }
%struct.xdot_color = type { i32, %union.anon.3 }
%union.anon.3 = type { %struct.xdot_radial_grad }
%struct.xdot_radial_grad = type { double, double, double, double, double, double, i32, ptr }

; Function Attrs: nounwind uwtable
define internal void @freePara(ptr noundef %0) #0 {
  %2 = alloca ptr, align 8
  store ptr %0, ptr %2, align 8, !tbaa !8
  %3 = load ptr, ptr %2, align 8, !tbaa !8
  %4 = getelementptr inbounds nuw %struct.exdot_op, ptr %3, i32 0, i32 0
  %5 = getelementptr inbounds nuw %struct._xdot_op, ptr %4, i32 0, i32 0
  %6 = load i32, ptr %5, align 8, !tbaa !154
  %7 = icmp eq i32 %6, 7
  br i1 %7, label %8, label %12

8:                                                ; preds = %1
  %9 = load ptr, ptr %2, align 8, !tbaa !8
  %10 = getelementptr inbounds nuw %struct.exdot_op, ptr %9, i32 0, i32 2
  %11 = load ptr, ptr %10, align 8, !tbaa !157
  call void @free_textspan(ptr noundef %11, i64 noundef 1)
  br label %12

12:                                               ; preds = %8, %1
  ret void
}