; Function Attrs: nounwind uwtable
define internal void @freePara(ptr noundef readonly captures(none) %0) #0 {
  %2 = load i32, ptr %0, align 8, !tbaa !150
  %3 = icmp eq i32 %2, 7
  br i1 %3, label %4, label %7

4:                                                ; preds = %1
  %5 = getelementptr inbounds nuw i8, ptr %0, i64 120
  %6 = load ptr, ptr %5, align 8, !tbaa !166
  tail call void @free_textspan(ptr noundef %6, i64 noundef 1) #27
  br label %7

7:                                                ; preds = %4, %1
  ret void
}